; Function Attrs: mustprogress nofree norecurse nosync nounwind willreturn memory(read, inaccessiblemem: none) uwtable
define hidden noundef nonnull align 8 dereferenceable(48) ptr @_ZNK4cvc58internal6theory5arith6linear10Constraint13constraintSetEv(ptr nocapture noundef nonnull readonly align 8 dereferenceable(145) %this) local_unnamed_addr #9 align 2 {
entry:
  %d_database = getelementptr inbounds i8, ptr %this, i64 72
  %0 = load ptr, ptr %d_database, align 8
  %d_varDatabases = getelementptr inbounds i8, ptr %0, i64 16
  %1 = load i32, ptr %this, align 8
  %conv = zext i32 %1 to i64
  %2 = load ptr, ptr %d_varDatabases, align 8
  %add.ptr.i = getelementptr inbounds ptr, ptr %2, i64 %conv
  %3 = load ptr, ptr %add.ptr.i, align 8
  %d_constraints = getelementptr inbounds i8, ptr %3, i64 8
  ret ptr %d_constraints
}